; Function Attrs: null_pointer_is_valid sspstrong uwtable
define internal void @uat_ue_keys_record_free_cb(ptr noundef readonly captures(none) %0) #0 {
  %2 = getelementptr inbounds nuw i8, ptr %0, i64 8
  %3 = load ptr, ptr %2, align 8
  tail call void @g_free(ptr noundef %3)
  %4 = getelementptr inbounds nuw i8, ptr %0, i64 16
  %5 = load ptr, ptr %4, align 8
  tail call void @g_free(ptr noundef %5)
  %6 = getelementptr inbounds nuw i8, ptr %0, i64 24
  %7 = load ptr, ptr %6, align 8
  tail call void @g_free(ptr noundef %7)
  ret void
}